; ModuleID = '40/1447.c'
source_filename = "40/1447.c"
target datalayout = "e-m:e-p270:32:32-p271:32:32-p272:64:64-i64:64-f80:128-n8:16:32:64-S128"
target triple = "x86_64-pc-linux-gnu"

@.str = private unnamed_addr constant [4 x i8] c"%lf\00", align 1
@.str.1 = private unnamed_addr constant [14 x i8] c"Invalid input\00", align 1
@.str.2 = private unnamed_addr constant [6 x i8] c"%.4lf\00", align 1

; Function Attrs: noinline nounwind uwtable
define dso_local i32 @main() #0 {
  %1 = alloca i32, align 4
  %2 = alloca double, align 8
  %3 = alloca double, align 8
  %4 = alloca double, align 8
  %5 = alloca double, align 8
  %6 = alloca double, align 8
  %7 = alloca double, align 8
  %8 = alloca double, align 8
  store i32 0, i32* %1, align 4
  %9 = call i32 (i8*, ...) @__isoc99_scanf(i8* getelementptr inbounds ([4 x i8], [4 x i8]* @.str, i64 0, i64 0), double* %2)
  %10 = call i32 (i8*, ...) @__isoc99_scanf(i8* getelementptr inbounds ([4 x i8], [4 x i8]* @.str, i64 0, i64 0), double* %3)
  %11 = call i32 (i8*, ...) @__isoc99_scanf(i8* getelementptr inbounds ([4 x i8], [4 x i8]* @.str, i64 0, i64 0), double* %4)
  %12 = call i32 (i8*, ...) @__isoc99_scanf(i8* getelementptr inbounds ([4 x i8], [4 x i8]* @.str, i64 0, i64 0), double* %5)
  %13 = call i32 (i8*, ...) @__isoc99_scanf(i8* getelementptr inbounds ([4 x i8], [4 x i8]* @.str, i64 0, i64 0), double* %6)
  %14 = load double, double* %8, align 8
  %15 = load double, double* %2, align 8
  %16 = fsub double %14, %15
  %17 = load double, double* %8, align 8
  %18 = load double, double* %3, align 8
  %19 = fsub double %17, %18
  %20 = fmul double %16, %19
  %21 = load double, double* %8, align 8
  %22 = load double, double* %4, align 8
  %23 = fsub double %21, %22
  %24 = fmul double %20, %23
  %25 = load double, double* %8, align 8
  %26 = load double, double* %5, align 8
  %27 = fsub double %25, %26
  %28 = fmul double %24, %27
  %29 = load double, double* %2, align 8
  %30 = load double, double* %3, align 8
  %31 = fmul double %29, %30
  %32 = load double, double* %4, align 8
  %33 = fmul double %31, %32
  %34 = load double, double* %5, align 8
  %35 = fmul double %33, %34
  %36 = load double, double* %6, align 8
  %37 = fdiv double %36, 2.000000e+00
  %38 = fdiv double %37, 1.800000e+02
  %39 = fmul double %38, 1.000000e+02
  %40 = call double @cos(double %39) #3
  %41 = fmul double %35, %40
  %42 = load double, double* %6, align 8
  %43 = fdiv double %42, 2.000000e+00
  %44 = fdiv double %43, 1.800000e+02
  %45 = fmul double %44, 1.000000e+02
  %46 = call double @cos(double %45) #3
  %47 = fmul double %41, %46
  %48 = fsub double %28, %47
  %49 = call double @sqrt(double %48) #3
  store double %49, double* %7, align 8
  %50 = load double, double* %8, align 8
  %51 = load double, double* %2, align 8
  %52 = fsub double %50, %51
  %53 = load double, double* %8, align 8
  %54 = load double, double* %3, align 8
  %55 = fsub double %53, %54
  %56 = fmul double %52, %55
  %57 = load double, double* %8, align 8
  %58 = load double, double* %4, align 8
  %59 = fsub double %57, %58
  %60 = fmul double %56, %59
  %61 = load double, double* %8, align 8
  %62 = load double, double* %5, align 8
  %63 = fsub double %61, %62
  %64 = fmul double %60, %63
  %65 = load double, double* %2, align 8
  %66 = load double, double* %3, align 8
  %67 = fmul double %65, %66
  %68 = load double, double* %4, align 8
  %69 = fmul double %67, %68
  %70 = load double, double* %5, align 8
  %71 = fmul double %69, %70
  %72 = load double, double* %6, align 8
  %73 = fdiv double %72, 2.000000e+00
  %74 = call double @cos(double %73) #3
  %75 = fmul double %71, %74
  %76 = load double, double* %6, align 8
  %77 = fdiv double %76, 2.000000e+00
  %78 = call double @cos(double %77) #3
  %79 = fmul double %75, %78
  %80 = fsub double %64, %79
  %81 = fcmp olt double %80, 0.000000e+00
  br i1 %81, label %82, label %84

82:                                               ; preds = %0
  %83 = call i32 (i8*, ...) @printf(i8* getelementptr inbounds ([14 x i8], [14 x i8]* @.str.1, i64 0, i64 0))
  br label %87

84:                                               ; preds = %0
  %85 = load double, double* %7, align 8
  %86 = call i32 (i8*, ...) @printf(i8* getelementptr inbounds ([6 x i8], [6 x i8]* @.str.2, i64 0, i64 0), double %85)
  br label %87

87:                                               ; preds = %84, %82
  ret i32 0
}

declare dso_local i32 @__isoc99_scanf(i8*, ...) #1

; Function Attrs: nounwind
declare dso_local double @sqrt(double) #2

; Function Attrs: nounwind
declare dso_local double @cos(double) #2

declare dso_local i32 @printf(i8*, ...) #1


!llvm.module.flags = !{!0}
!llvm.ident = !{!1}

!0 = !{i32 1, !"wchar_size", i32 4}
!1 = !{!"clang version 10.0.0-4ubuntu1 "}
