; ModuleID = 'source-C-CXX/39/1447.c'
source_filename = "source-C-CXX/39/1447.c"
target datalayout = "e-m:e-p270:32:32-p271:32:32-p272:64:64-i64:64-f80:128-n8:16:32:64-S128"
target triple = "x86_64-pc-linux-gnu"

@.str = private unnamed_addr constant [4 x i8] c"%lf\00", align 1
@.str.2 = private unnamed_addr constant [6 x i8] c"%.4lf\00", align 1

; Function Attrs: nofree nounwind sspstrong uwtable
define dso_local i32 @main() local_unnamed_addr #0 {
  %1 = alloca double, align 8
  %2 = alloca double, align 8
  %3 = alloca double, align 8
  %4 = alloca double, align 8
  %5 = alloca double, align 8
  %6 = bitcast double* %1 to i8*
  call void @llvm.lifetime.start.p0i8(i64 8, i8* nonnull %6) #4
  %7 = bitcast double* %2 to i8*
  call void @llvm.lifetime.start.p0i8(i64 8, i8* nonnull %7) #4
  %8 = bitcast double* %3 to i8*
  call void @llvm.lifetime.start.p0i8(i64 8, i8* nonnull %8) #4
  %9 = bitcast double* %4 to i8*
  call void @llvm.lifetime.start.p0i8(i64 8, i8* nonnull %9) #4
  %10 = bitcast double* %5 to i8*
  call void @llvm.lifetime.start.p0i8(i64 8, i8* nonnull %10) #4
  %11 = call i32 (i8*, ...) @__isoc99_scanf(i8* getelementptr inbounds ([4 x i8], [4 x i8]* @.str, i64 0, i64 0), double* nonnull %1)
  %12 = call i32 (i8*, ...) @__isoc99_scanf(i8* getelementptr inbounds ([4 x i8], [4 x i8]* @.str, i64 0, i64 0), double* nonnull %2)
  %13 = call i32 (i8*, ...) @__isoc99_scanf(i8* getelementptr inbounds ([4 x i8], [4 x i8]* @.str, i64 0, i64 0), double* nonnull %3)
  %14 = call i32 (i8*, ...) @__isoc99_scanf(i8* getelementptr inbounds ([4 x i8], [4 x i8]* @.str, i64 0, i64 0), double* nonnull %4)
  %15 = call i32 (i8*, ...) @__isoc99_scanf(i8* getelementptr inbounds ([4 x i8], [4 x i8]* @.str, i64 0, i64 0), double* nonnull %5)
  %16 = load double, double* %5, align 8, !tbaa !5
  %17 = fmul double %16, 5.000000e-01
  %18 = fdiv double %17, 1.800000e+02
  %19 = fmul double %18, 1.000000e+02
  %20 = fcmp oeq double %19, 0xFFF0000000000000
  %21 = fcmp oeq double %19, 0x7FF0000000000000
  %22 = or i1 %21, %20
  br i1 %22, label %23, label %29, !prof !9

23:                                               ; preds = %0
  %24 = call double @cos(double %19) #4
  %25 = load double, double* %5, align 8, !tbaa !5
  %26 = fmul double %25, 5.000000e-01
  %27 = fdiv double %26, 1.800000e+02
  %28 = fmul double %27, 1.000000e+02
  br label %29

29:                                               ; preds = %0, %23
  %30 = phi double [ %19, %0 ], [ %28, %23 ]
  %31 = fcmp oeq double %30, 0xFFF0000000000000
  %32 = fcmp oeq double %30, 0x7FF0000000000000
  %33 = or i1 %32, %31
  br i1 %33, label %34, label %36, !prof !9

34:                                               ; preds = %29
  %35 = call double @cos(double %30) #4
  br label %36

36:                                               ; preds = %29, %34
  %37 = call double @sqrt(double 0x7FF8000000000000) #4
  %38 = load double, double* %5, align 8, !tbaa !5
  %39 = fmul double %38, 5.000000e-01
  %40 = fcmp oeq double %39, 0xFFF0000000000000
  %41 = fcmp oeq double %39, 0x7FF0000000000000
  %42 = or i1 %41, %40
  br i1 %42, label %43, label %47, !prof !9

43:                                               ; preds = %36
  %44 = call double @cos(double %39) #4
  %45 = load double, double* %5, align 8, !tbaa !5
  %46 = fmul double %45, 5.000000e-01
  br label %47

47:                                               ; preds = %36, %43
  %48 = phi double [ %39, %36 ], [ %46, %43 ]
  %49 = fcmp oeq double %48, 0xFFF0000000000000
  %50 = fcmp oeq double %48, 0x7FF0000000000000
  %51 = or i1 %50, %49
  br i1 %51, label %52, label %54, !prof !9

52:                                               ; preds = %47
  %53 = call double @cos(double %48) #4
  br label %54

54:                                               ; preds = %47, %52
  %55 = call i32 (i8*, ...) @printf(i8* nonnull dereferenceable(1) getelementptr inbounds ([6 x i8], [6 x i8]* @.str.2, i64 0, i64 0), double %37)
  call void @llvm.lifetime.end.p0i8(i64 8, i8* nonnull %10) #4
  call void @llvm.lifetime.end.p0i8(i64 8, i8* nonnull %9) #4
  call void @llvm.lifetime.end.p0i8(i64 8, i8* nonnull %8) #4
  call void @llvm.lifetime.end.p0i8(i64 8, i8* nonnull %7) #4
  call void @llvm.lifetime.end.p0i8(i64 8, i8* nonnull %6) #4
  ret i32 0
}

; Function Attrs: argmemonly mustprogress nofree nosync nounwind willreturn
declare void @llvm.lifetime.start.p0i8(i64 immarg, i8* nocapture) #1

; Function Attrs: nofree nounwind
declare noundef i32 @__isoc99_scanf(i8* nocapture noundef readonly, ...) local_unnamed_addr #2

; Function Attrs: mustprogress nofree nounwind willreturn
declare double @sqrt(double) local_unnamed_addr #3

; Function Attrs: mustprogress nofree nounwind willreturn
declare double @cos(double) local_unnamed_addr #3

; Function Attrs: nofree nounwind
declare noundef i32 @printf(i8* nocapture noundef readonly, ...) local_unnamed_addr #2

; Function Attrs: argmemonly mustprogress nofree nosync nounwind willreturn
declare void @llvm.lifetime.end.p0i8(i64 immarg, i8* nocapture) #1


!llvm.module.flags = !{!0, !1, !2, !3}
!llvm.ident = !{!4}

!0 = !{i32 1, !"wchar_size", i32 4}
!1 = !{i32 7, !"PIC Level", i32 2}
!2 = !{i32 7, !"PIE Level", i32 2}
!3 = !{i32 7, !"uwtable", i32 1}
!4 = !{!"clang version 13.0.0"}
!5 = !{!6, !6, i64 0}
!6 = !{!"double", !7, i64 0}
!7 = !{!"omnipotent char", !8, i64 0}
!8 = !{!"Simple C/C++ TBAA"}
!9 = !{!"branch_weights", i32 1, i32 2000}
